target datalayout = "e-m:e-p270:32:32-p271:32:32-p272:64:64-i64:64-i128:128-f80:128-n8:16:32:64-S128"
target triple = "x86_64-pc-linux-gnu"

; Function Attrs: nounwind uwtable
define internal void @filter_simple_high(ptr noundef %0, ptr noundef %1, ptr noundef %2, ptr noundef %3, i32 noundef %4) #2 {
  %6 = alloca ptr, align 8
  %7 = alloca ptr, align 8
  %8 = alloca ptr, align 8
  %9 = alloca ptr, align 8
  %10 = alloca i32, align 4
  %11 = alloca i32, align 4
  store ptr %0, ptr %6, align 8, !tbaa !66
  store ptr %1, ptr %7, align 8, !tbaa !99
  store ptr %2, ptr %8, align 8, !tbaa !99
  store ptr %3, ptr %9, align 8, !tbaa !100
  store i32 %4, ptr %10, align 4, !tbaa !24
  call void @llvm.lifetime.start.p0(i64 4, ptr %11) #10
  store i32 0, ptr %11, align 4, !tbaa !24
  br label %12

12:                                               ; preds = %102, %5
  %13 = load i32, ptr %11, align 4, !tbaa !24
  %14 = load i32, ptr %10, align 4, !tbaa !24
  %15 = icmp slt i32 %13, %14
  br i1 %15, label %16, label %105

16:                                               ; preds = %12
  %17 = load ptr, ptr %7, align 8, !tbaa !99
  %18 = getelementptr inbounds ptr, ptr %17, i64 0
  %19 = load ptr, ptr %18, align 8, !tbaa !88
  %20 = getelementptr inbounds nuw i8, ptr %19, i32 1
  store ptr %20, ptr %18, align 8, !tbaa !88
  %21 = load i8, ptr %19, align 1, !tbaa !91
  %22 = zext i8 %21 to i32
  %23 = load ptr, ptr %9, align 8, !tbaa !100
  %24 = getelementptr inbounds i16, ptr %23, i64 0
  %25 = load i16, ptr %24, align 2, !tbaa !102
  %26 = sext i16 %25 to i32
  %27 = mul nsw i32 %22, %26
  %28 = load ptr, ptr %6, align 8, !tbaa !66
  %29 = load i32, ptr %28, align 4, !tbaa !24
  %30 = add nsw i32 %29, %27
  store i32 %30, ptr %28, align 4, !tbaa !24
  %31 = load ptr, ptr %8, align 8, !tbaa !99
  %32 = getelementptr inbounds ptr, ptr %31, i64 0
  %33 = load ptr, ptr %32, align 8, !tbaa !88
  %34 = getelementptr inbounds nuw i8, ptr %33, i32 1
  store ptr %34, ptr %32, align 8, !tbaa !88
  %35 = load i8, ptr %33, align 1, !tbaa !91
  %36 = zext i8 %35 to i32
  %37 = load ptr, ptr %9, align 8, !tbaa !100
  %38 = getelementptr inbounds i16, ptr %37, i64 0
  %39 = load i16, ptr %38, align 2, !tbaa !102
  %40 = sext i16 %39 to i32
  %41 = mul nsw i32 %36, %40
  %42 = load ptr, ptr %6, align 8, !tbaa !66
  %43 = load i32, ptr %42, align 4, !tbaa !24
  %44 = add nsw i32 %43, %41
  store i32 %44, ptr %42, align 4, !tbaa !24
  %45 = load ptr, ptr %7, align 8, !tbaa !99
  %46 = getelementptr inbounds ptr, ptr %45, i64 1
  %47 = load ptr, ptr %46, align 8, !tbaa !88
  %48 = getelementptr inbounds nuw i8, ptr %47, i32 1
  store ptr %48, ptr %46, align 8, !tbaa !88
  %49 = load i8, ptr %47, align 1, !tbaa !91
  %50 = zext i8 %49 to i32
  %51 = load ptr, ptr %9, align 8, !tbaa !100
  %52 = getelementptr inbounds i16, ptr %51, i64 1
  %53 = load i16, ptr %52, align 2, !tbaa !102
  %54 = sext i16 %53 to i32
  %55 = mul nsw i32 %50, %54
  %56 = load ptr, ptr %6, align 8, !tbaa !66
  %57 = load i32, ptr %56, align 4, !tbaa !24
  %58 = add nsw i32 %57, %55
  store i32 %58, ptr %56, align 4, !tbaa !24
  %59 = load ptr, ptr %8, align 8, !tbaa !99
  %60 = getelementptr inbounds ptr, ptr %59, i64 1
  %61 = load ptr, ptr %60, align 8, !tbaa !88
  %62 = getelementptr inbounds nuw i8, ptr %61, i32 1
  store ptr %62, ptr %60, align 8, !tbaa !88
  %63 = load i8, ptr %61, align 1, !tbaa !91
  %64 = zext i8 %63 to i32
  %65 = load ptr, ptr %9, align 8, !tbaa !100
  %66 = getelementptr inbounds i16, ptr %65, i64 1
  %67 = load i16, ptr %66, align 2, !tbaa !102
  %68 = sext i16 %67 to i32
  %69 = mul nsw i32 %64, %68
  %70 = load ptr, ptr %6, align 8, !tbaa !66
  %71 = load i32, ptr %70, align 4, !tbaa !24
  %72 = add nsw i32 %71, %69
  store i32 %72, ptr %70, align 4, !tbaa !24
  %73 = load ptr, ptr %7, align 8, !tbaa !99
  %74 = getelementptr inbounds ptr, ptr %73, i64 2
  %75 = load ptr, ptr %74, align 8, !tbaa !88
  %76 = getelementptr inbounds nuw i8, ptr %75, i32 1
  store ptr %76, ptr %74, align 8, !tbaa !88
  %77 = load i8, ptr %75, align 1, !tbaa !91
  %78 = zext i8 %77 to i32
  %79 = load ptr, ptr %9, align 8, !tbaa !100
  %80 = getelementptr inbounds i16, ptr %79, i64 2
  %81 = load i16, ptr %80, align 2, !tbaa !102
  %82 = sext i16 %81 to i32
  %83 = mul nsw i32 %78, %82
  %84 = load ptr, ptr %6, align 8, !tbaa !66
  %85 = load i32, ptr %84, align 4, !tbaa !24
  %86 = add nsw i32 %85, %83
  store i32 %86, ptr %84, align 4, !tbaa !24
  %87 = load ptr, ptr %8, align 8, !tbaa !99
  %88 = getelementptr inbounds ptr, ptr %87, i64 2
  %89 = load ptr, ptr %88, align 8, !tbaa !88
  %90 = getelementptr inbounds nuw i8, ptr %89, i32 1
  store ptr %90, ptr %88, align 8, !tbaa !88
  %91 = load i8, ptr %89, align 1, !tbaa !91
  %92 = zext i8 %91 to i32
  %93 = load ptr, ptr %9, align 8, !tbaa !100
  %94 = getelementptr inbounds i16, ptr %93, i64 2
  %95 = load i16, ptr %94, align 2, !tbaa !102
  %96 = sext i16 %95 to i32
  %97 = mul nsw i32 %92, %96
  %98 = load ptr, ptr %6, align 8, !tbaa !66
  %99 = getelementptr inbounds nuw i32, ptr %98, i32 1
  store ptr %99, ptr %6, align 8, !tbaa !66
  %100 = load i32, ptr %98, align 4, !tbaa !24
  %101 = add nsw i32 %100, %97
  store i32 %101, ptr %98, align 4, !tbaa !24
  br label %102

102:                                              ; preds = %16
  %103 = load i32, ptr %11, align 4, !tbaa !24
  %104 = add nsw i32 %103, 1
  store i32 %104, ptr %11, align 4, !tbaa !24
  br label %12, !llvm.loop !106

105:                                              ; preds = %12
  call void @llvm.lifetime.end.p0(i64 4, ptr %11) #10
  ret void
}