; Function Attrs: nofree norecurse nosync nounwind memory(read, argmem: readwrite, inaccessiblemem: none) uwtable
define internal void @filter_simple_high(ptr noundef captures(none) %0, ptr noundef captures(none) %1, ptr noundef captures(none) %2, ptr noundef readonly captures(none) %3, i32 noundef %4) #6 {
  %6 = icmp sgt i32 %4, 0
  br i1 %6, label %.lr.ph, label %._crit_edge

.lr.ph:                                           ; preds = %5
  %7 = load i16, ptr %3, align 2, !tbaa !87
  %8 = sext i16 %7 to i32
  %9 = getelementptr inbounds nuw i8, ptr %1, i64 8
  %10 = getelementptr inbounds nuw i8, ptr %3, i64 2
  %11 = load i16, ptr %10, align 2, !tbaa !87
  %12 = sext i16 %11 to i32
  %13 = getelementptr inbounds nuw i8, ptr %2, i64 8
  %14 = getelementptr inbounds nuw i8, ptr %1, i64 16
  %15 = getelementptr inbounds nuw i8, ptr %3, i64 4
  %16 = load i16, ptr %15, align 2, !tbaa !87
  %17 = sext i16 %16 to i32
  %18 = getelementptr inbounds nuw i8, ptr %2, i64 16
  br label %19

19:                                               ; preds = %.lr.ph, %19
  %.022 = phi i32 [ 0, %.lr.ph ], [ %58, %19 ]
  %.02021 = phi ptr [ %0, %.lr.ph ], [ %56, %19 ]
  %20 = load ptr, ptr %1, align 8, !tbaa !78
  %21 = getelementptr inbounds nuw i8, ptr %20, i64 1
  store ptr %21, ptr %1, align 8, !tbaa !78
  %22 = load i8, ptr %20, align 1, !tbaa !81
  %23 = zext i8 %22 to i32
  %24 = mul nsw i32 %8, %23
  %25 = load i32, ptr %.02021, align 4, !tbaa !58
  %26 = add nsw i32 %24, %25
  store i32 %26, ptr %.02021, align 4, !tbaa !58
  %27 = load ptr, ptr %2, align 8, !tbaa !78
  %28 = getelementptr inbounds nuw i8, ptr %27, i64 1
  store ptr %28, ptr %2, align 8, !tbaa !78
  %29 = load i8, ptr %27, align 1, !tbaa !81
  %30 = zext i8 %29 to i32
  %31 = mul nsw i32 %30, %8
  %32 = add nsw i32 %31, %26
  store i32 %32, ptr %.02021, align 4, !tbaa !58
  %33 = load ptr, ptr %9, align 8, !tbaa !78
  %34 = getelementptr inbounds nuw i8, ptr %33, i64 1
  store ptr %34, ptr %9, align 8, !tbaa !78
  %35 = load i8, ptr %33, align 1, !tbaa !81
  %36 = zext i8 %35 to i32
  %37 = mul nsw i32 %12, %36
  %38 = add nsw i32 %37, %32
  store i32 %38, ptr %.02021, align 4, !tbaa !58
  %39 = load ptr, ptr %13, align 8, !tbaa !78
  %40 = getelementptr inbounds nuw i8, ptr %39, i64 1
  store ptr %40, ptr %13, align 8, !tbaa !78
  %41 = load i8, ptr %39, align 1, !tbaa !81
  %42 = zext i8 %41 to i32
  %43 = mul nsw i32 %42, %12
  %44 = add nsw i32 %43, %38
  store i32 %44, ptr %.02021, align 4, !tbaa !58
  %45 = load ptr, ptr %14, align 8, !tbaa !78
  %46 = getelementptr inbounds nuw i8, ptr %45, i64 1
  store ptr %46, ptr %14, align 8, !tbaa !78
  %47 = load i8, ptr %45, align 1, !tbaa !81
  %48 = zext i8 %47 to i32
  %49 = mul nsw i32 %17, %48
  %50 = add nsw i32 %49, %44
  store i32 %50, ptr %.02021, align 4, !tbaa !58
  %51 = load ptr, ptr %18, align 8, !tbaa !78
  %52 = getelementptr inbounds nuw i8, ptr %51, i64 1
  store ptr %52, ptr %18, align 8, !tbaa !78
  %53 = load i8, ptr %51, align 1, !tbaa !81
  %54 = zext i8 %53 to i32
  %55 = mul nsw i32 %54, %17
  %56 = getelementptr inbounds nuw i8, ptr %.02021, i64 4
  %57 = add nsw i32 %55, %50
  store i32 %57, ptr %.02021, align 4, !tbaa !58
  %58 = add nuw nsw i32 %.022, 1
  %exitcond.not = icmp eq i32 %58, %4
  br i1 %exitcond.not, label %._crit_edge, label %19, !llvm.loop !91

._crit_edge:                                      ; preds = %19, %5
  ret void
}